; Function Attrs: mustprogress nounwind uwtable
define dso_local void @_ZN4llvm3vfs17OverlayFileSystem11pushOverlayENS_18IntrusiveRefCntPtrINS0_10FileSystemEEE(ptr noundef nonnull align 8 dereferenceable(40) %0, ptr noundef nonnull %1) local_unnamed_addr #0 align 2 {
  %3 = alloca %"class.llvm::Twine", align 8
  %4 = alloca %"class.llvm::ErrorOr.8", align 8
  %5 = getelementptr inbounds nuw i8, ptr %0, i64 16
  tail call void @_ZN4llvm23SmallVectorTemplateBaseINS_18IntrusiveRefCntPtrINS_3vfs10FileSystemEEELb0EE9push_backERKS4_(ptr noundef nonnull align 8 dereferenceable(16) %5, ptr noundef nonnull align 8 dereferenceable(8) %1)
  %6 = load ptr, ptr %1, align 8
  %7 = load ptr, ptr %0, align 8
  %8 = getelementptr inbounds i8, ptr %7, i64 72
  %9 = load ptr, ptr %8, align 8
  call void %9(ptr dead_on_unwind nonnull writable sret(%"class.llvm::ErrorOr.8") align 8 %4, ptr noundef nonnull align 8 dereferenceable(40) %0) #27
  %10 = getelementptr inbounds nuw i8, ptr %3, i64 32
  store i8 4, ptr %10, align 8
  %11 = getelementptr inbounds nuw i8, ptr %3, i64 33
  store i8 1, ptr %11, align 1
  store ptr %4, ptr %3, align 8
  %12 = load ptr, ptr %6, align 8
  %13 = getelementptr inbounds i8, ptr %12, i64 64
  %14 = load ptr, ptr %13, align 8
  %15 = call { i32, ptr } %14(ptr noundef nonnull align 8 dereferenceable(12) %6, ptr noundef nonnull align 8 dereferenceable(34) %3) #27
  %16 = getelementptr inbounds nuw i8, ptr %4, i64 32
  %17 = load i8, ptr %16, align 8
  %18 = trunc i8 %17 to i1
  br i1 %18, label %_ZN4llvm7ErrorOrINSt7__cxx1112basic_stringIcSt11char_traitsIcESaIcEEEED2Ev.exit, label %19

19:                                               ; preds = %2
  call void @_ZNSt7__cxx1112basic_stringIcSt11char_traitsIcESaIcEED1Ev(ptr noundef nonnull align 8 dereferenceable(32) %4) #27
  br label %_ZN4llvm7ErrorOrINSt7__cxx1112basic_stringIcSt11char_traitsIcESaIcEEEED2Ev.exit

_ZN4llvm7ErrorOrINSt7__cxx1112basic_stringIcSt11char_traitsIcESaIcEEEED2Ev.exit: ; preds = %2, %19
  ret void
}